target datalayout = "e-m:e-p270:32:32-p271:32:32-p272:64:64-i64:64-i128:128-f80:128-n8:16:32:64-S128"
target triple = "x86_64-unknown-linux-gnu"

%"class.icu_75::DecimalFormatSymbols" = type <{ %"class.icu_75::UObject", [29 x %"class.icu_75::UnicodeString"], %"class.icu_75::UnicodeString", i32, [4 x i8], %"class.icu_75::Locale", [157 x i8], [157 x i8], [6 x i8], ptr, [3 x %"class.icu_75::UnicodeString"], [3 x %"class.icu_75::UnicodeString"], i8, i8, [9 x i8], [5 x i8] }>
%"class.icu_75::UObject" = type { ptr }
%"class.icu_75::UnicodeString" = type { %"class.icu_75::Replaceable", %"union.icu_75::UnicodeString::StackBufferOrFields" }
%"class.icu_75::Replaceable" = type { %"class.icu_75::UObject" }
%"union.icu_75::UnicodeString::StackBufferOrFields" = type { %struct.anon.0, [32 x i8] }
%struct.anon.0 = type { i16, i32, i32, ptr }
%"class.icu_75::Locale" = type <{ %"class.icu_75::UObject", [12 x i8], [6 x i8], [4 x i8], [2 x i8], i32, [4 x i8], ptr, [157 x i8], [3 x i8], ptr, i8, [7 x i8] }>
%struct.anon = type { i16, [27 x i16] }

@_ZTVN6icu_7520DecimalFormatSymbolsE = unnamed_addr constant { [5 x ptr] } { [5 x ptr] [ptr null, ptr @_ZTIN6icu_7520DecimalFormatSymbolsE, ptr @_ZN6icu_7520DecimalFormatSymbolsD1Ev, ptr @_ZN6icu_7520DecimalFormatSymbolsD0Ev, ptr @_ZNK6icu_7520DecimalFormatSymbols17getDynamicClassIDEv] }, align 8
@_ZTVN6icu_757UObjectE = external unnamed_addr constant { [5 x ptr] }, align 8
@_ZTVN6icu_7513UnicodeStringE = external unnamed_addr constant { [13 x ptr] }, align 8
@_ZTVN6icu_7511ReplaceableE = external unnamed_addr constant { [13 x ptr] }, align 8

; Function Attrs: mustprogress nounwind uwtable
define linkonce_odr void @_ZN6icu_757UObjectC2Ev(ptr noundef nonnull align 8 dereferenceable(8) %this) unnamed_addr #0 comdat align 2 {
entry:
  %this.addr = alloca ptr, align 8
  store ptr %this, ptr %this.addr, align 8
  %this1 = load ptr, ptr %this.addr, align 8
  store ptr getelementptr inbounds ({ [5 x ptr] }, ptr @_ZTVN6icu_757UObjectE, i32 0, i32 0, i32 2), ptr %this1, align 8
  ret void
}

; Function Attrs: mustprogress nounwind uwtable
define linkonce_odr void @_ZN6icu_7511ReplaceableC2Ev(ptr noundef nonnull align 8 dereferenceable(8) %this) unnamed_addr #0 comdat align 2 {
entry:
  %this.addr = alloca ptr, align 8
  store ptr %this, ptr %this.addr, align 8
  %this1 = load ptr, ptr %this.addr, align 8
  call void @_ZN6icu_757UObjectC2Ev(ptr noundef nonnull align 8 dereferenceable(8) %this1) #9
  store ptr getelementptr inbounds ({ [13 x ptr] }, ptr @_ZTVN6icu_7511ReplaceableE, i32 0, i32 0, i32 2), ptr %this1, align 8
  ret void
}

; Function Attrs: mustprogress uwtable
define linkonce_odr void @_ZN6icu_7513UnicodeStringC2Ev(ptr noundef nonnull align 8 dereferenceable(64) %this) unnamed_addr #1 comdat align 2 {
entry:
  %this.addr = alloca ptr, align 8
  store ptr %this, ptr %this.addr, align 8
  %this1 = load ptr, ptr %this.addr, align 8
  call void @_ZN6icu_7511ReplaceableC2Ev(ptr noundef nonnull align 8 dereferenceable(8) %this1)
  store ptr getelementptr inbounds ({ [13 x ptr] }, ptr @_ZTVN6icu_7513UnicodeStringE, i32 0, i32 0, i32 2), ptr %this1, align 8
  %fUnion2 = getelementptr inbounds %"class.icu_75::UnicodeString", ptr %this1, i32 0, i32 1
  %fLengthAndFlags = getelementptr inbounds %struct.anon, ptr %fUnion2, i32 0, i32 0
  store i16 2, ptr %fLengthAndFlags, align 8
  ret void
}

; Function Attrs: mustprogress nounwind uwtable
define linkonce_odr void @_ZN6icu_757UObjectC2ERKS0_(ptr noundef nonnull align 8 dereferenceable(8) %this, ptr noundef nonnull align 8 dereferenceable(8) %0) unnamed_addr #0 comdat align 2 {
entry:
  %this.addr = alloca ptr, align 8
  %.addr = alloca ptr, align 8
  store ptr %this, ptr %this.addr, align 8
  store ptr %0, ptr %.addr, align 8
  %this1 = load ptr, ptr %this.addr, align 8
  store ptr getelementptr inbounds ({ [5 x ptr] }, ptr @_ZTVN6icu_757UObjectE, i32 0, i32 0, i32 2), ptr %this1, align 8
  ret void
}

; Function Attrs: mustprogress uwtable
define void @_ZN6icu_7520DecimalFormatSymbolsC2ERKS0_(ptr noundef nonnull align 8 dereferenceable(2883) %this, ptr noundef nonnull align 8 dereferenceable(2883) %source) unnamed_addr #1 align 2 personality ptr @__gxx_personality_v0 {
entry:
  %this.addr = alloca ptr, align 8
  %source.addr = alloca ptr, align 8
  %exn.slot = alloca ptr, align 8
  %ehselector.slot = alloca i32, align 4
  store ptr %this, ptr %this.addr, align 8
  store ptr %source, ptr %source.addr, align 8
  %this1 = load ptr, ptr %this.addr, align 8
  %0 = load ptr, ptr %source.addr, align 8
  call void @_ZN6icu_757UObjectC2ERKS0_(ptr noundef nonnull align 8 dereferenceable(8) %this1, ptr noundef nonnull align 8 dereferenceable(8) %0) #9
  store ptr getelementptr inbounds ({ [5 x ptr] }, ptr @_ZTVN6icu_7520DecimalFormatSymbolsE, i32 0, i32 0, i32 2), ptr %this1, align 8
  %fSymbols = getelementptr inbounds %"class.icu_75::DecimalFormatSymbols", ptr %this1, i32 0, i32 1
  %array.begin = getelementptr inbounds [29 x %"class.icu_75::UnicodeString"], ptr %fSymbols, i32 0, i32 0
  %arrayctor.end = getelementptr inbounds %"class.icu_75::UnicodeString", ptr %array.begin, i64 29
  br label %arrayctor.loop

arrayctor.loop:                                   ; preds = %invoke.cont, %entry
  %arrayctor.cur = phi ptr [ %array.begin, %entry ], [ %arrayctor.next, %invoke.cont ]
  invoke void @_ZN6icu_7513UnicodeStringC2Ev(ptr noundef nonnull align 8 dereferenceable(64) %arrayctor.cur)
          to label %invoke.cont unwind label %lpad

invoke.cont:                                      ; preds = %arrayctor.loop
  %arrayctor.next = getelementptr inbounds %"class.icu_75::UnicodeString", ptr %arrayctor.cur, i64 1
  %arrayctor.done = icmp eq ptr %arrayctor.next, %arrayctor.end
  br i1 %arrayctor.done, label %arrayctor.cont, label %arrayctor.loop

arrayctor.cont:                                   ; preds = %invoke.cont
  %fNoSymbol = getelementptr inbounds %"class.icu_75::DecimalFormatSymbols", ptr %this1, i32 0, i32 2
  invoke void @_ZN6icu_7513UnicodeStringC2Ev(ptr noundef nonnull align 8 dereferenceable(64) %fNoSymbol)
          to label %invoke.cont4 unwind label %lpad3

invoke.cont4:                                     ; preds = %arrayctor.cont
  %locale = getelementptr inbounds %"class.icu_75::DecimalFormatSymbols", ptr %this1, i32 0, i32 5
  invoke void @_ZN6icu_756LocaleC1Ev(ptr noundef nonnull align 8 dereferenceable(217) %locale)
          to label %invoke.cont6 unwind label %lpad5

invoke.cont6:                                     ; preds = %invoke.cont4
  %currPattern = getelementptr inbounds %"class.icu_75::DecimalFormatSymbols", ptr %this1, i32 0, i32 9
  store ptr null, ptr %currPattern, align 8
  %currencySpcBeforeSym = getelementptr inbounds %"class.icu_75::DecimalFormatSymbols", ptr %this1, i32 0, i32 10
  %array.begin7 = getelementptr inbounds [3 x %"class.icu_75::UnicodeString"], ptr %currencySpcBeforeSym, i32 0, i32 0
  %arrayctor.end8 = getelementptr inbounds %"class.icu_75::UnicodeString", ptr %array.begin7, i64 3
  br label %arrayctor.loop9

arrayctor.loop9:                                  ; preds = %invoke.cont12, %invoke.cont6
  %arrayctor.cur10 = phi ptr [ %array.begin7, %invoke.cont6 ], [ %arrayctor.next19, %invoke.cont12 ]
  invoke void @_ZN6icu_7513UnicodeStringC2Ev(ptr noundef nonnull align 8 dereferenceable(64) %arrayctor.cur10)
          to label %invoke.cont12 unwind label %lpad11

invoke.cont12:                                    ; preds = %arrayctor.loop9
  %arrayctor.next19 = getelementptr inbounds %"class.icu_75::UnicodeString", ptr %arrayctor.cur10, i64 1
  %arrayctor.done20 = icmp eq ptr %arrayctor.next19, %arrayctor.end8
  br i1 %arrayctor.done20, label %arrayctor.cont21, label %arrayctor.loop9

arrayctor.cont21:                                 ; preds = %invoke.cont12
  %currencySpcAfterSym = getelementptr inbounds %"class.icu_75::DecimalFormatSymbols", ptr %this1, i32 0, i32 11
  %array.begin22 = getelementptr inbounds [3 x %"class.icu_75::UnicodeString"], ptr %currencySpcAfterSym, i32 0, i32 0
  %arrayctor.end23 = getelementptr inbounds %"class.icu_75::UnicodeString", ptr %array.begin22, i64 3
  br label %arrayctor.loop24

arrayctor.loop24:                                 ; preds = %invoke.cont27, %arrayctor.cont21
  %arrayctor.cur25 = phi ptr [ %array.begin22, %arrayctor.cont21 ], [ %arrayctor.next34, %invoke.cont27 ]
  invoke void @_ZN6icu_7513UnicodeStringC2Ev(ptr noundef nonnull align 8 dereferenceable(64) %arrayctor.cur25)
          to label %invoke.cont27 unwind label %lpad26

invoke.cont27:                                    ; preds = %arrayctor.loop24
  %arrayctor.next34 = getelementptr inbounds %"class.icu_75::UnicodeString", ptr %arrayctor.cur25, i64 1
  %arrayctor.done35 = icmp eq ptr %arrayctor.next34, %arrayctor.end23
  br i1 %arrayctor.done35, label %arrayctor.cont36, label %arrayctor.loop24

arrayctor.cont36:                                 ; preds = %invoke.cont27
  %nsName = getelementptr inbounds %"class.icu_75::DecimalFormatSymbols", ptr %this1, i32 0, i32 14
  %arrayinit.begin = getelementptr inbounds [9 x i8], ptr %nsName, i64 0, i64 0
  %arrayinit.end = getelementptr inbounds i8, ptr %arrayinit.begin, i64 9
  br label %arrayinit.body

arrayinit.body:                                   ; preds = %arrayinit.body, %arrayctor.cont36
  %arrayinit.cur = phi ptr [ %arrayinit.begin, %arrayctor.cont36 ], [ %arrayinit.next, %arrayinit.body ]
  store i8 0, ptr %arrayinit.cur, align 1
  %arrayinit.next = getelementptr inbounds i8, ptr %arrayinit.cur, i64 1
  %arrayinit.done = icmp eq ptr %arrayinit.next, %arrayinit.end
  br i1 %arrayinit.done, label %arrayinit.end37, label %arrayinit.body

arrayinit.end37:                                  ; preds = %arrayinit.body
  %1 = load ptr, ptr %source.addr, align 8
  %call = invoke noundef nonnull align 8 dereferenceable(2883) ptr @_ZN6icu_7520DecimalFormatSymbolsaSERKS0_(ptr noundef nonnull align 8 dereferenceable(2883) %this1, ptr noundef nonnull align 8 dereferenceable(2883) %1)
          to label %invoke.cont39 unwind label %lpad38

invoke.cont39:                                    ; preds = %arrayinit.end37
  ret void

lpad:                                             ; preds = %arrayctor.loop
  %2 = landingpad { ptr, i32 }
          cleanup
  %3 = extractvalue { ptr, i32 } %2, 0
  store ptr %3, ptr %exn.slot, align 8
  %4 = extractvalue { ptr, i32 } %2, 1
  store i32 %4, ptr %ehselector.slot, align 4
  %arraydestroy.isempty = icmp eq ptr %array.begin, %arrayctor.cur
  br i1 %arraydestroy.isempty, label %arraydestroy.done2, label %arraydestroy.body

arraydestroy.body:                                ; preds = %arraydestroy.body, %lpad
  %arraydestroy.elementPast = phi ptr [ %arrayctor.cur, %lpad ], [ %arraydestroy.element, %arraydestroy.body ]
  %arraydestroy.element = getelementptr inbounds %"class.icu_75::UnicodeString", ptr %arraydestroy.elementPast, i64 -1
  call void @_ZN6icu_7513UnicodeStringD1Ev(ptr noundef nonnull align 8 dereferenceable(64) %arraydestroy.element) #9
  %arraydestroy.done = icmp eq ptr %arraydestroy.element, %array.begin
  br i1 %arraydestroy.done, label %arraydestroy.done2, label %arraydestroy.body

arraydestroy.done2:                               ; preds = %arraydestroy.body, %lpad
  br label %ehcleanup61

lpad3:                                            ; preds = %arrayctor.cont
  %5 = landingpad { ptr, i32 }
          cleanup
  %6 = extractvalue { ptr, i32 } %5, 0
  store ptr %6, ptr %exn.slot, align 8
  %7 = extractvalue { ptr, i32 } %5, 1
  store i32 %7, ptr %ehselector.slot, align 4
  br label %ehcleanup54

lpad5:                                            ; preds = %invoke.cont4
  %8 = landingpad { ptr, i32 }
          cleanup
  %9 = extractvalue { ptr, i32 } %8, 0
  store ptr %9, ptr %exn.slot, align 8
  %10 = extractvalue { ptr, i32 } %8, 1
  store i32 %10, ptr %ehselector.slot, align 4
  br label %ehcleanup53

lpad11:                                           ; preds = %arrayctor.loop9
  %11 = landingpad { ptr, i32 }
          cleanup
  %12 = extractvalue { ptr, i32 } %11, 0
  store ptr %12, ptr %exn.slot, align 8
  %13 = extractvalue { ptr, i32 } %11, 1
  store i32 %13, ptr %ehselector.slot, align 4
  %arraydestroy.isempty13 = icmp eq ptr %array.begin7, %arrayctor.cur10
  br i1 %arraydestroy.isempty13, label %arraydestroy.done18, label %arraydestroy.body14

arraydestroy.body14:                              ; preds = %arraydestroy.body14, %lpad11
  %arraydestroy.elementPast15 = phi ptr [ %arrayctor.cur10, %lpad11 ], [ %arraydestroy.element16, %arraydestroy.body14 ]
  %arraydestroy.element16 = getelementptr inbounds %"class.icu_75::UnicodeString", ptr %arraydestroy.elementPast15, i64 -1
  call void @_ZN6icu_7513UnicodeStringD1Ev(ptr noundef nonnull align 8 dereferenceable(64) %arraydestroy.element16) #9
  %arraydestroy.done17 = icmp eq ptr %arraydestroy.element16, %array.begin7
  br i1 %arraydestroy.done17, label %arraydestroy.done18, label %arraydestroy.body14

arraydestroy.done18:                              ; preds = %arraydestroy.body14, %lpad11
  br label %ehcleanup52

lpad26:                                           ; preds = %arrayctor.loop24
  %14 = landingpad { ptr, i32 }
          cleanup
  %15 = extractvalue { ptr, i32 } %14, 0
  store ptr %15, ptr %exn.slot, align 8
  %16 = extractvalue { ptr, i32 } %14, 1
  store i32 %16, ptr %ehselector.slot, align 4
  %arraydestroy.isempty28 = icmp eq ptr %array.begin22, %arrayctor.cur25
  br i1 %arraydestroy.isempty28, label %arraydestroy.done33, label %arraydestroy.body29

arraydestroy.body29:                              ; preds = %arraydestroy.body29, %lpad26
  %arraydestroy.elementPast30 = phi ptr [ %arrayctor.cur25, %lpad26 ], [ %arraydestroy.element31, %arraydestroy.body29 ]
  %arraydestroy.element31 = getelementptr inbounds %"class.icu_75::UnicodeString", ptr %arraydestroy.elementPast30, i64 -1
  call void @_ZN6icu_7513UnicodeStringD1Ev(ptr noundef nonnull align 8 dereferenceable(64) %arraydestroy.element31) #9
  %arraydestroy.done32 = icmp eq ptr %arraydestroy.element31, %array.begin22
  br i1 %arraydestroy.done32, label %arraydestroy.done33, label %arraydestroy.body29

arraydestroy.done33:                              ; preds = %arraydestroy.body29, %lpad26
  br label %ehcleanup

lpad38:                                           ; preds = %arrayinit.end37
  %17 = landingpad { ptr, i32 }
          cleanup
  %18 = extractvalue { ptr, i32 } %17, 0
  store ptr %18, ptr %exn.slot, align 8
  %19 = extractvalue { ptr, i32 } %17, 1
  store i32 %19, ptr %ehselector.slot, align 4
  %array.begin40 = getelementptr inbounds [3 x %"class.icu_75::UnicodeString"], ptr %currencySpcAfterSym, i32 0, i32 0
  %20 = getelementptr inbounds %"class.icu_75::UnicodeString", ptr %array.begin40, i64 3
  br label %arraydestroy.body41

arraydestroy.body41:                              ; preds = %arraydestroy.body41, %lpad38
  %arraydestroy.elementPast42 = phi ptr [ %20, %lpad38 ], [ %arraydestroy.element43, %arraydestroy.body41 ]
  %arraydestroy.element43 = getelementptr inbounds %"class.icu_75::UnicodeString", ptr %arraydestroy.elementPast42, i64 -1
  call void @_ZN6icu_7513UnicodeStringD1Ev(ptr noundef nonnull align 8 dereferenceable(64) %arraydestroy.element43) #9
  %arraydestroy.done44 = icmp eq ptr %arraydestroy.element43, %array.begin40
  br i1 %arraydestroy.done44, label %arraydestroy.done45, label %arraydestroy.body41

arraydestroy.done45:                              ; preds = %arraydestroy.body41
  br label %ehcleanup

ehcleanup:                                        ; preds = %arraydestroy.done45, %arraydestroy.done33
  %array.begin46 = getelementptr inbounds [3 x %"class.icu_75::UnicodeString"], ptr %currencySpcBeforeSym, i32 0, i32 0
  %21 = getelementptr inbounds %"class.icu_75::UnicodeString", ptr %array.begin46, i64 3
  br label %arraydestroy.body47

arraydestroy.body47:                              ; preds = %arraydestroy.body47, %ehcleanup
  %arraydestroy.elementPast48 = phi ptr [ %21, %ehcleanup ], [ %arraydestroy.element49, %arraydestroy.body47 ]
  %arraydestroy.element49 = getelementptr inbounds %"class.icu_75::UnicodeString", ptr %arraydestroy.elementPast48, i64 -1
  call void @_ZN6icu_7513UnicodeStringD1Ev(ptr noundef nonnull align 8 dereferenceable(64) %arraydestroy.element49) #9
  %arraydestroy.done50 = icmp eq ptr %arraydestroy.element49, %array.begin46
  br i1 %arraydestroy.done50, label %arraydestroy.done51, label %arraydestroy.body47

arraydestroy.done51:                              ; preds = %arraydestroy.body47
  br label %ehcleanup52

ehcleanup52:                                      ; preds = %arraydestroy.done51, %arraydestroy.done18
  call void @_ZN6icu_756LocaleD1Ev(ptr noundef nonnull align 8 dereferenceable(217) %locale) #9
  br label %ehcleanup53

ehcleanup53:                                      ; preds = %ehcleanup52, %lpad5
  call void @_ZN6icu_7513UnicodeStringD1Ev(ptr noundef nonnull align 8 dereferenceable(64) %fNoSymbol) #9
  br label %ehcleanup54

ehcleanup54:                                      ; preds = %ehcleanup53, %lpad3
  %array.begin55 = getelementptr inbounds [29 x %"class.icu_75::UnicodeString"], ptr %fSymbols, i32 0, i32 0
  %22 = getelementptr inbounds %"class.icu_75::UnicodeString", ptr %array.begin55, i64 29
  br label %arraydestroy.body56

arraydestroy.body56:                              ; preds = %arraydestroy.body56, %ehcleanup54
  %arraydestroy.elementPast57 = phi ptr [ %22, %ehcleanup54 ], [ %arraydestroy.element58, %arraydestroy.body56 ]
  %arraydestroy.element58 = getelementptr inbounds %"class.icu_75::UnicodeString", ptr %arraydestroy.elementPast57, i64 -1
  call void @_ZN6icu_7513UnicodeStringD1Ev(ptr noundef nonnull align 8 dereferenceable(64) %arraydestroy.element58) #9
  %arraydestroy.done59 = icmp eq ptr %arraydestroy.element58, %array.begin55
  br i1 %arraydestroy.done59, label %arraydestroy.done60, label %arraydestroy.body56

arraydestroy.done60:                              ; preds = %arraydestroy.body56
  br label %ehcleanup61

ehcleanup61:                                      ; preds = %arraydestroy.done60, %arraydestroy.done2
  call void @_ZN6icu_757UObjectD2Ev(ptr noundef nonnull align 8 dereferenceable(8) %this1) #9
  br label %eh.resume

eh.resume:                                        ; preds = %ehcleanup61
  %exn = load ptr, ptr %exn.slot, align 8
  %sel = load i32, ptr %ehselector.slot, align 4
  %lpad.val = insertvalue { ptr, i32 } poison, ptr %exn, 0
  %lpad.val62 = insertvalue { ptr, i32 } %lpad.val, i32 %sel, 1
  resume { ptr, i32 } %lpad.val62
}