; Function Attrs: mustprogress uwtable
define void @_ZN6icu_7520DecimalFormatSymbolsC2ERKS0_(ptr noundef nonnull align 8 dereferenceable(2883) %this, ptr noundef nonnull align 8 dereferenceable(2883) %source) unnamed_addr #1 align 2 personality ptr @__gxx_personality_v0 {
entry:
  store ptr getelementptr inbounds ({ [5 x ptr] }, ptr @_ZTVN6icu_7520DecimalFormatSymbolsE, i64 0, i32 0, i64 2), ptr %this, align 8
  br label %invoke.cont

invoke.cont:                                      ; preds = %entry, %invoke.cont
  %arrayctor.cur.idx = phi i64 [ 8, %entry ], [ %arrayctor.cur.add, %invoke.cont ]
  %arrayctor.cur.ptr.ptr = getelementptr inbounds i8, ptr %this, i64 %arrayctor.cur.idx
  store ptr getelementptr inbounds ({ [13 x ptr] }, ptr @_ZTVN6icu_7513UnicodeStringE, i64 0, i32 0, i64 2), ptr %arrayctor.cur.ptr.ptr, align 8
  %fUnion2.i = getelementptr inbounds i8, ptr %arrayctor.cur.ptr.ptr, i64 8
  store i16 2, ptr %fUnion2.i, align 8
  %arrayctor.cur.add = add nuw nsw i64 %arrayctor.cur.idx, 64
  %arrayctor.done = icmp eq i64 %arrayctor.cur.add, 1864
  br i1 %arrayctor.done, label %invoke.cont4, label %invoke.cont

invoke.cont4:                                     ; preds = %invoke.cont
  %fNoSymbol = getelementptr inbounds i8, ptr %this, i64 1864
  store ptr getelementptr inbounds ({ [13 x ptr] }, ptr @_ZTVN6icu_7513UnicodeStringE, i64 0, i32 0, i64 2), ptr %fNoSymbol, align 8
  %fUnion2.i7 = getelementptr inbounds i8, ptr %this, i64 1872
  store i16 2, ptr %fUnion2.i7, align 8
  %locale = getelementptr inbounds i8, ptr %this, i64 1936
  invoke void @_ZN6icu_756LocaleC1Ev(ptr noundef nonnull align 8 dereferenceable(217) %locale)
          to label %invoke.cont6 unwind label %lpad5

invoke.cont6:                                     ; preds = %invoke.cont4
  %currPattern = getelementptr inbounds i8, ptr %this, i64 2480
  store ptr null, ptr %currPattern, align 8
  br label %invoke.cont12

invoke.cont12:                                    ; preds = %invoke.cont6, %invoke.cont12
  %arrayctor.cur10.idx = phi i64 [ 2488, %invoke.cont6 ], [ %arrayctor.cur10.add, %invoke.cont12 ]
  %arrayctor.cur10.ptr.ptr = getelementptr inbounds i8, ptr %this, i64 %arrayctor.cur10.idx
  store ptr getelementptr inbounds ({ [13 x ptr] }, ptr @_ZTVN6icu_7513UnicodeStringE, i64 0, i32 0, i64 2), ptr %arrayctor.cur10.ptr.ptr, align 8
  %fUnion2.i8 = getelementptr inbounds i8, ptr %arrayctor.cur10.ptr.ptr, i64 8
  store i16 2, ptr %fUnion2.i8, align 8
  %arrayctor.cur10.add = add nuw nsw i64 %arrayctor.cur10.idx, 64
  %arrayctor.done20 = icmp eq i64 %arrayctor.cur10.add, 2680
  br i1 %arrayctor.done20, label %invoke.cont27, label %invoke.cont12

invoke.cont27:                                    ; preds = %invoke.cont12, %invoke.cont27
  %arrayctor.cur25.idx = phi i64 [ %arrayctor.cur25.add, %invoke.cont27 ], [ 2680, %invoke.cont12 ]
  %arrayctor.cur25.ptr.ptr = getelementptr inbounds i8, ptr %this, i64 %arrayctor.cur25.idx
  store ptr getelementptr inbounds ({ [13 x ptr] }, ptr @_ZTVN6icu_7513UnicodeStringE, i64 0, i32 0, i64 2), ptr %arrayctor.cur25.ptr.ptr, align 8
  %fUnion2.i9 = getelementptr inbounds i8, ptr %arrayctor.cur25.ptr.ptr, i64 8
  store i16 2, ptr %fUnion2.i9, align 8
  %arrayctor.cur25.add = add nuw nsw i64 %arrayctor.cur25.idx, 64
  %arrayctor.done35 = icmp eq i64 %arrayctor.cur25.add, 2872
  br i1 %arrayctor.done35, label %arrayinit.body.preheader, label %invoke.cont27

arrayinit.body.preheader:                         ; preds = %invoke.cont27
  %scevgep = getelementptr inbounds i8, ptr %this, i64 2874
  tail call void @llvm.memset.p0.i64(ptr noundef nonnull align 2 dereferenceable(9) %scevgep, i8 0, i64 9, i1 false)
  %call = invoke noundef nonnull align 8 dereferenceable(2883) ptr @_ZN6icu_7520DecimalFormatSymbolsaSERKS0_(ptr noundef nonnull align 8 dereferenceable(2883) %this, ptr noundef nonnull align 8 dereferenceable(2883) %source)
          to label %invoke.cont39 unwind label %lpad38

invoke.cont39:                                    ; preds = %arrayinit.body.preheader
  ret void

lpad5:                                            ; preds = %invoke.cont4
  %0 = landingpad { ptr, i32 }
          cleanup
  br label %ehcleanup53

lpad38:                                           ; preds = %arrayinit.body.preheader
  %1 = landingpad { ptr, i32 }
          cleanup
  br label %arraydestroy.body41

arraydestroy.body41:                              ; preds = %arraydestroy.body41, %lpad38
  %arraydestroy.elementPast42.idx = phi i64 [ 2872, %lpad38 ], [ %arraydestroy.elementPast42.add, %arraydestroy.body41 ]
  %arraydestroy.elementPast42.add = add nsw i64 %arraydestroy.elementPast42.idx, -64
  %arraydestroy.element43.ptr = getelementptr inbounds i8, ptr %this, i64 %arraydestroy.elementPast42.add
  tail call void @_ZN6icu_7513UnicodeStringD1Ev(ptr noundef nonnull align 8 dereferenceable(64) %arraydestroy.element43.ptr) #15
  %arraydestroy.done44 = icmp eq i64 %arraydestroy.elementPast42.add, 2680
  br i1 %arraydestroy.done44, label %arraydestroy.body47, label %arraydestroy.body41

arraydestroy.body47:                              ; preds = %arraydestroy.body41, %arraydestroy.body47
  %arraydestroy.elementPast48.idx = phi i64 [ %arraydestroy.elementPast48.add, %arraydestroy.body47 ], [ 2680, %arraydestroy.body41 ]
  %arraydestroy.elementPast48.add = add nsw i64 %arraydestroy.elementPast48.idx, -64
  %arraydestroy.element49.ptr = getelementptr inbounds i8, ptr %this, i64 %arraydestroy.elementPast48.add
  tail call void @_ZN6icu_7513UnicodeStringD1Ev(ptr noundef nonnull align 8 dereferenceable(64) %arraydestroy.element49.ptr) #15
  %arraydestroy.done50 = icmp eq i64 %arraydestroy.elementPast48.add, 2488
  br i1 %arraydestroy.done50, label %ehcleanup52, label %arraydestroy.body47

ehcleanup52:                                      ; preds = %arraydestroy.body47
  tail call void @_ZN6icu_756LocaleD1Ev(ptr noundef nonnull align 8 dereferenceable(217) %locale) #15
  br label %ehcleanup53

ehcleanup53:                                      ; preds = %ehcleanup52, %lpad5
  %.pn.pn.pn = phi { ptr, i32 } [ %1, %ehcleanup52 ], [ %0, %lpad5 ]
  tail call void @_ZN6icu_7513UnicodeStringD1Ev(ptr noundef nonnull align 8 dereferenceable(64) %fNoSymbol) #15
  br label %arraydestroy.body56

arraydestroy.body56:                              ; preds = %arraydestroy.body56, %ehcleanup53
  %arraydestroy.elementPast57.idx = phi i64 [ 1864, %ehcleanup53 ], [ %arraydestroy.elementPast57.add, %arraydestroy.body56 ]
  %arraydestroy.elementPast57.add = add nsw i64 %arraydestroy.elementPast57.idx, -64
  %arraydestroy.element58.ptr = getelementptr inbounds i8, ptr %this, i64 %arraydestroy.elementPast57.add
  tail call void @_ZN6icu_7513UnicodeStringD1Ev(ptr noundef nonnull align 8 dereferenceable(64) %arraydestroy.element58.ptr) #15
  %arraydestroy.done59 = icmp eq i64 %arraydestroy.elementPast57.add, 8
  br i1 %arraydestroy.done59, label %ehcleanup61, label %arraydestroy.body56

ehcleanup61:                                      ; preds = %arraydestroy.body56
  tail call void @_ZN6icu_757UObjectD2Ev(ptr noundef nonnull align 8 dereferenceable(8) %this) #15
  resume { ptr, i32 } %.pn.pn.pn
}